LIBRARY CCOMMONS
EXETYPE WINDOWS

CODE LOADONCALL MOVEABLE DISCARDABLE

DATA PRELOAD MOVEABLE SINGLE

HEAPSIZE 2048

EXPORTS
	;Explicit exports can go here

?Terminate@CDlgProgressThread@@QAEXXZ @101
?PostOneProgressStep@CDlgProgressThread@@QAEXJ@Z @102
?Create@CDlgProgressThread@@SAPAV1@J@Z @103
?SetConsoleTextAtribute@CCGlobals@@YAGG@Z @104
?Trim@CCGlobals@@YA?AVCString@@PBD@Z @105
?IsStringNumeric@CCGlobals@@YAHPBD@Z @106
?SplitPath@CCGlobals@@YAXAAVCString@@0000@Z @107
?Round@CCGlobals@@YAJN@Z @108
?Precision@CCGlobals@@YANNH@Z @109
?SetBitmapOnButton@CCGlobals@@YAXAAVCBitmap@@IPAUHWND__@@@Z @110
?SetIconOnButton@CCGlobals@@YAXIPAUHWND__@@@Z @111
?BuildImageList@CCGlobals@@YAPAVCImageList@@PAUHINSTANCE__@@HHZZ @112
?VerifyDLLVersion@CCGlobals@@YAHPBDAAVCTimeStamp@@@Z @113
?HasUTF8Chars@CCGlobals@@YA_NV?$basic_string@DU?$char_traits@D@std@@V?$allocator@D@2@@std@@@Z @114
?print@CCGlobals@@YAXGPBDZZ @115
?print@CCGlobals@@YAXPBDZZ @116
?sprint@CCGlobals@@YA?AV?$basic_string@DU?$char_traits@D@std@@V?$allocator@D@2@@std@@PBDZZ @117
?wsprint@CCGlobals@@YA?AV?$basic_string@GU?$char_traits@G@std@@V?$allocator@G@2@@std@@PBGZZ @118
?to_utf8@CCGlobals@@YA?AV?$basic_string@DU?$char_traits@D@std@@V?$allocator@D@2@@std@@PBGH@Z @119
?to_utf8@CCGlobals@@YA?AV?$basic_string@DU?$char_traits@D@std@@V?$allocator@D@2@@std@@ABV?$basic_string@GU?$char_traits@G@std@@V?$allocator@G@2@@3@@Z @120
?UTF8Encode2BytesUnicode@UTF8Codec@@SAXV?$vector@GV?$allocator@G@std@@@std@@AAV?$vector@EV?$allocator@E@std@@@3@@Z @121
?UTF8Decode2BytesUnicode@UTF8Codec@@SAXV?$vector@EV?$allocator@E@std@@@std@@AAV?$vector@GV?$allocator@G@std@@@3@@Z @122
?UTF8Encode4BytesUnicode@UTF8Codec@@SAXV?$vector@IV?$allocator@I@std@@@std@@AAV?$vector@EV?$allocator@E@std@@@3@@Z @123
?UTF8Decode4BytesUnicode@UTF8Codec@@SAXV?$vector@EV?$allocator@E@std@@@std@@AAV?$vector@IV?$allocator@I@std@@@3@@Z @124
?Encode@UTF8Codec@@SAIAAV?$basic_string@DU?$char_traits@D@std@@V?$allocator@D@2@@std@@@Z @125
?Decode@UTF8Codec@@SAIAAV?$basic_string@DU?$char_traits@D@std@@V?$allocator@D@2@@std@@@Z @126
